target datalayout = "e-m:e-p270:32:32-p271:32:32-p272:64:64-i64:64-i128:128-f80:128-n8:16:32:64-S128"
target triple = "x86_64-unknown-linux-gnu"

%struct.grpc_jwt_verifier = type { ptr, i64, i64 }
%struct.grpc_jwt_verifier_email_domain_key_url_mapping = type { ptr, ptr }

@.str.24 = private unnamed_addr constant [20 x i8] c"gserviceaccount.com\00", align 1
@.str.25 = private unnamed_addr constant [42 x i8] c"www.googleapis.com/robot/v1/metadata/x509\00", align 1

; Function Attrs: mustprogress uwtable
define linkonce_odr noundef ptr @_ZN9grpc_core6ZallocI17grpc_jwt_verifierEEPT_v() #5 comdat {
entry:
  %call = call ptr @gpr_zalloc(i64 noundef 24)
  ret ptr %call
}

; Function Attrs: mustprogress uwtable
define noundef ptr @_Z24grpc_jwt_verifier_createPK46grpc_jwt_verifier_email_domain_key_url_mappingm(ptr noundef %mappings, i64 noundef %num_mappings) #5 {
entry:
  %mappings.addr = alloca ptr, align 8
  %num_mappings.addr = alloca i64, align 8
  %v = alloca ptr, align 8
  %i = alloca i64, align 8
  store ptr %mappings, ptr %mappings.addr, align 8
  store i64 %num_mappings, ptr %num_mappings.addr, align 8
  %call = call noundef ptr @_ZN9grpc_core6ZallocI17grpc_jwt_verifierEEPT_v()
  store ptr %call, ptr %v, align 8
  %0 = load i64, ptr %num_mappings.addr, align 8
  %add = add i64 1, %0
  %1 = load ptr, ptr %v, align 8
  %allocated_mappings = getelementptr inbounds %struct.grpc_jwt_verifier, ptr %1, i32 0, i32 2
  store i64 %add, ptr %allocated_mappings, align 8
  %2 = load ptr, ptr %v, align 8
  %allocated_mappings1 = getelementptr inbounds %struct.grpc_jwt_verifier, ptr %2, i32 0, i32 2
  %3 = load i64, ptr %allocated_mappings1, align 8
  %mul = mul i64 %3, 16
  %call2 = call ptr @gpr_malloc(i64 noundef %mul)
  %4 = load ptr, ptr %v, align 8
  %mappings3 = getelementptr inbounds %struct.grpc_jwt_verifier, ptr %4, i32 0, i32 0
  store ptr %call2, ptr %mappings3, align 8
  %5 = load ptr, ptr %v, align 8
  call void @_ZL20verifier_put_mappingP17grpc_jwt_verifierPKcS2_(ptr noundef %5, ptr noundef @.str.24, ptr noundef @.str.25)
  %6 = load ptr, ptr %mappings.addr, align 8
  %cmp = icmp ne ptr %6, null
  br i1 %cmp, label %if.then, label %if.end

if.then:                                          ; preds = %entry
  store i64 0, ptr %i, align 8
  br label %for.cond

for.cond:                                         ; preds = %for.inc, %if.then
  %7 = load i64, ptr %i, align 8
  %8 = load i64, ptr %num_mappings.addr, align 8
  %cmp4 = icmp ult i64 %7, %8
  br i1 %cmp4, label %for.body, label %for.end

for.body:                                         ; preds = %for.cond
  %9 = load ptr, ptr %v, align 8
  %10 = load ptr, ptr %mappings.addr, align 8
  %11 = load i64, ptr %i, align 8
  %arrayidx = getelementptr inbounds %struct.grpc_jwt_verifier_email_domain_key_url_mapping, ptr %10, i64 %11
  %email_domain = getelementptr inbounds %struct.grpc_jwt_verifier_email_domain_key_url_mapping, ptr %arrayidx, i32 0, i32 0
  %12 = load ptr, ptr %email_domain, align 8
  %13 = load ptr, ptr %mappings.addr, align 8
  %14 = load i64, ptr %i, align 8
  %arrayidx5 = getelementptr inbounds %struct.grpc_jwt_verifier_email_domain_key_url_mapping, ptr %13, i64 %14
  %key_url_prefix = getelementptr inbounds %struct.grpc_jwt_verifier_email_domain_key_url_mapping, ptr %arrayidx5, i32 0, i32 1
  %15 = load ptr, ptr %key_url_prefix, align 8
  call void @_ZL20verifier_put_mappingP17grpc_jwt_verifierPKcS2_(ptr noundef %9, ptr noundef %12, ptr noundef %15)
  br label %for.inc

for.inc:                                          ; preds = %for.body
  %16 = load i64, ptr %i, align 8
  %inc = add i64 %16, 1
  store i64 %inc, ptr %i, align 8
  br label %for.cond, !llvm.loop !6

for.end:                                          ; preds = %for.cond
  br label %if.end

if.end:                                           ; preds = %for.end, %entry
  %17 = load ptr, ptr %v, align 8
  ret ptr %17
}