; Function Attrs: mustprogress uwtable
define noundef ptr @_Z24grpc_jwt_verifier_createPK46grpc_jwt_verifier_email_domain_key_url_mappingm(ptr noundef readonly %mappings, i64 noundef %num_mappings) local_unnamed_addr #4 {
entry:
  %call.i = tail call noundef ptr @gpr_zalloc(i64 noundef 24)
  %add = add i64 %num_mappings, 1
  %allocated_mappings = getelementptr inbounds i8, ptr %call.i, i64 16
  store i64 %add, ptr %allocated_mappings, align 8
  %mul = shl i64 %add, 4
  %call2 = tail call ptr @gpr_malloc(i64 noundef %mul)
  store ptr %call2, ptr %call.i, align 8
  tail call fastcc void @_ZL20verifier_put_mappingP17grpc_jwt_verifierPKcS2_(ptr noundef nonnull %call.i, ptr noundef nonnull @.str.24, ptr noundef nonnull @.str.25)
  %cmp.not = icmp ne ptr %mappings, null
  %cmp412 = icmp ne i64 %num_mappings, 0
  %or.cond = and i1 %cmp.not, %cmp412
  br i1 %or.cond, label %for.body, label %if.end

for.body:                                         ; preds = %entry, %for.body
  %i.013 = phi i64 [ %inc, %for.body ], [ 0, %entry ]
  %arrayidx = getelementptr inbounds %struct.grpc_jwt_verifier_email_domain_key_url_mapping, ptr %mappings, i64 %i.013
  %0 = load ptr, ptr %arrayidx, align 8
  %key_url_prefix = getelementptr inbounds i8, ptr %arrayidx, i64 8
  %1 = load ptr, ptr %key_url_prefix, align 8
  tail call fastcc void @_ZL20verifier_put_mappingP17grpc_jwt_verifierPKcS2_(ptr noundef nonnull %call.i, ptr noundef %0, ptr noundef %1)
  %inc = add nuw i64 %i.013, 1
  %exitcond.not = icmp eq i64 %inc, %num_mappings
  br i1 %exitcond.not, label %if.end, label %for.body, !llvm.loop !9

if.end:                                           ; preds = %for.body, %entry
  ret ptr %call.i
}